target datalayout = "e-m:e-p270:32:32-p271:32:32-p272:64:64-i64:64-i128:128-f80:128-n8:16:32:64-S128"
target triple = "x86_64-pc-linux-gnu"

%"class.std::__cxx11::basic_string" = type { %"struct.std::__cxx11::basic_string<char>::_Alloc_hider", i64, %union.anon }
%"struct.std::__cxx11::basic_string<char>::_Alloc_hider" = type { ptr }
%union.anon = type { i64, [8 x i8] }
%"struct.std::_Rb_tree_key_compare" = type { %"struct.std::less" }
%"struct.std::less" = type { i8 }
%"struct.std::_Rb_tree_header" = type { %"struct.std::_Rb_tree_node_base", i64 }
%"struct.std::_Rb_tree_node_base" = type { i32, ptr, ptr, ptr }
%"class.std::set" = type { %"class.std::_Rb_tree.14" }
%"class.std::_Rb_tree.14" = type { %"struct.std::_Rb_tree<std::__cxx11::basic_string<char>, std::__cxx11::basic_string<char>, std::_Identity<std::__cxx11::basic_string<char>>, std::less<std::__cxx11::basic_string<char>>>::_Rb_tree_impl" }
%"struct.std::_Rb_tree<std::__cxx11::basic_string<char>, std::__cxx11::basic_string<char>, std::_Identity<std::__cxx11::basic_string<char>>, std::less<std::__cxx11::basic_string<char>>>::_Rb_tree_impl" = type { %"struct.std::_Rb_tree_key_compare", %"struct.std::_Rb_tree_header" }
%"class.std::allocator" = type { i8 }
%"class.std::initializer_list" = type { ptr, i64 }
%"class.std::allocator.117" = type { i8 }

@.str.17 = private unnamed_addr constant [34 x i8] c"waiting for lock on profile '%1%'\00", align 1

; Function Attrs: mustprogress nounwind uwtable
define linkonce_odr void @_ZNSt15__new_allocatorINSt7__cxx1112basic_stringIcSt11char_traitsIcESaIcEEEEC2Ev(ptr noundef nonnull align 1 dereferenceable(1) %0) unnamed_addr #2 comdat align 2 {
  %2 = alloca ptr, align 8
  store ptr %0, ptr %2, align 8
  ret void
}

; Function Attrs: mustprogress nounwind uwtable
define linkonce_odr void @_ZNSaINSt7__cxx1112basic_stringIcSt11char_traitsIcESaIcEEEED2Ev(ptr noundef nonnull align 1 dereferenceable(1) %0) unnamed_addr #2 comdat align 2 {
  %2 = alloca ptr, align 8
  store ptr %0, ptr %2, align 8
  ret void
}

; Function Attrs: mustprogress nounwind uwtable
define linkonce_odr void @_ZNSaINSt7__cxx1112basic_stringIcSt11char_traitsIcESaIcEEEEC2Ev(ptr noundef nonnull align 1 dereferenceable(1) %0) unnamed_addr #2 comdat align 2 {
  %2 = alloca ptr, align 8
  store ptr %0, ptr %2, align 8
  %3 = load ptr, ptr %2, align 8
  call void @_ZNSt15__new_allocatorINSt7__cxx1112basic_stringIcSt11char_traitsIcESaIcEEEEC2Ev(ptr noundef nonnull align 1 dereferenceable(1) %3) #1
  ret void
}

; Function Attrs: mustprogress uwtable
define void @_ZN3nix11lockProfileERNS_9PathLocksERKNSt7__cxx1112basic_stringIcSt11char_traitsIcESaIcEEE(ptr noundef nonnull align 8 dereferenceable(25) %0, ptr noundef nonnull align 8 dereferenceable(32) %1) #5 personality ptr @__gxx_personality_v0 {
  %3 = alloca ptr, align 8
  %4 = alloca ptr, align 8
  %5 = alloca %"class.std::set", align 8
  %6 = alloca %"class.std::initializer_list", align 8
  %7 = alloca [1 x %"class.std::__cxx11::basic_string"], align 8
  %8 = alloca ptr, align 8
  %9 = alloca ptr, align 8
  %10 = alloca i32, align 4
  %11 = alloca %"struct.std::less", align 1
  %12 = alloca %"class.std::allocator.117", align 1
  %13 = alloca %"class.std::__cxx11::basic_string", align 8
  %14 = alloca %"class.std::__cxx11::basic_string", align 8
  %15 = alloca %"class.std::allocator", align 1
  store ptr %0, ptr %3, align 8
  store ptr %1, ptr %4, align 8
  %16 = load ptr, ptr %3, align 8
  %17 = getelementptr inbounds [1 x %"class.std::__cxx11::basic_string"], ptr %7, i64 0, i64 0
  store ptr %17, ptr %8, align 8
  %18 = load ptr, ptr %4, align 8
  invoke void @_ZNSt7__cxx1112basic_stringIcSt11char_traitsIcESaIcEEC2ERKS4_(ptr noundef nonnull align 8 dereferenceable(32) %17, ptr noundef nonnull align 8 dereferenceable(32) %18)
          to label %19 unwind label %41

19:                                               ; preds = %2
  %20 = getelementptr inbounds %"class.std::initializer_list", ptr %6, i32 0, i32 0
  %21 = getelementptr inbounds [1 x %"class.std::__cxx11::basic_string"], ptr %7, i64 0, i64 0
  store ptr %21, ptr %20, align 8
  %22 = getelementptr inbounds %"class.std::initializer_list", ptr %6, i32 0, i32 1
  store i64 1, ptr %22, align 8
  call void @_ZNSaINSt7__cxx1112basic_stringIcSt11char_traitsIcESaIcEEEEC2Ev(ptr noundef nonnull align 1 dereferenceable(1) %12) #1
  %23 = getelementptr inbounds { ptr, i64 }, ptr %6, i32 0, i32 0
  %24 = load ptr, ptr %23, align 8
  %25 = getelementptr inbounds { ptr, i64 }, ptr %6, i32 0, i32 1
  %26 = load i64, ptr %25, align 8
  invoke void @_ZNSt3setINSt7__cxx1112basic_stringIcSt11char_traitsIcESaIcEEESt4lessIS5_ESaIS5_EEC2ESt16initializer_listIS5_ERKS7_RKS8_(ptr noundef nonnull align 8 dereferenceable(48) %5, ptr %24, i64 %26, ptr noundef nonnull align 1 dereferenceable(1) %11, ptr noundef nonnull align 1 dereferenceable(1) %12)
          to label %27 unwind label %52

27:                                               ; preds = %19
  call void @_ZNSaIcEC1Ev(ptr noundef nonnull align 1 dereferenceable(1) %15) #1
  invoke void @_ZNSt7__cxx1112basic_stringIcSt11char_traitsIcESaIcEEC2IS3_EEPKcRKS3_(ptr noundef nonnull align 8 dereferenceable(32) %14, ptr noundef @.str.17, ptr noundef nonnull align 1 dereferenceable(1) %15)
          to label %28 unwind label %56

28:                                               ; preds = %27
  %29 = load ptr, ptr %4, align 8
  invoke void @_ZN3nix3fmtIJNSt7__cxx1112basic_stringIcSt11char_traitsIcESaIcEEEEEES6_RKS6_DpRKT_(ptr dead_on_unwind writable sret(%"class.std::__cxx11::basic_string") align 8 %13, ptr noundef nonnull align 8 dereferenceable(32) %14, ptr noundef nonnull align 8 dereferenceable(32) %29)
          to label %30 unwind label %60

30:                                               ; preds = %28
  %31 = invoke noundef zeroext i1 @_ZN3nix9PathLocks9lockPathsERKSt3setINSt7__cxx1112basic_stringIcSt11char_traitsIcESaIcEEESt4lessIS7_ESaIS7_EERKS7_b(ptr noundef nonnull align 8 dereferenceable(25) %16, ptr noundef nonnull align 8 dereferenceable(48) %5, ptr noundef nonnull align 8 dereferenceable(32) %13, i1 noundef zeroext true)
          to label %32 unwind label %64

32:                                               ; preds = %30
  call void @_ZNSt7__cxx1112basic_stringIcSt11char_traitsIcESaIcEED2Ev(ptr noundef nonnull align 8 dereferenceable(32) %13) #1
  call void @_ZNSt7__cxx1112basic_stringIcSt11char_traitsIcESaIcEED2Ev(ptr noundef nonnull align 8 dereferenceable(32) %14) #1
  call void @_ZNSaIcED1Ev(ptr noundef nonnull align 1 dereferenceable(1) %15) #1
  call void @_ZNSt3setINSt7__cxx1112basic_stringIcSt11char_traitsIcESaIcEEESt4lessIS5_ESaIS5_EED2Ev(ptr noundef nonnull align 8 dereferenceable(48) %5) #1
  call void @_ZNSaINSt7__cxx1112basic_stringIcSt11char_traitsIcESaIcEEEED2Ev(ptr noundef nonnull align 1 dereferenceable(1) %12) #1
  %33 = getelementptr inbounds [1 x %"class.std::__cxx11::basic_string"], ptr %7, i32 0, i32 0
  %34 = getelementptr inbounds %"class.std::__cxx11::basic_string", ptr %33, i64 1
  br label %35

35:                                               ; preds = %35, %32
  %36 = phi ptr [ %34, %32 ], [ %37, %35 ]
  %37 = getelementptr inbounds %"class.std::__cxx11::basic_string", ptr %36, i64 -1
  call void @_ZNSt7__cxx1112basic_stringIcSt11char_traitsIcESaIcEED2Ev(ptr noundef nonnull align 8 dereferenceable(32) %37) #1
  %38 = icmp eq ptr %37, %33
  br i1 %38, label %39, label %35

39:                                               ; preds = %35
  %40 = load ptr, ptr %3, align 8
  call void @_ZN3nix9PathLocks11setDeletionEb(ptr noundef nonnull align 8 dereferenceable(25) %40, i1 noundef zeroext true)
  ret void

41:                                               ; preds = %2
  %42 = landingpad { ptr, i32 }
          cleanup
  %43 = extractvalue { ptr, i32 } %42, 0
  store ptr %43, ptr %9, align 8
  %44 = extractvalue { ptr, i32 } %42, 1
  store i32 %44, ptr %10, align 4
  %45 = load ptr, ptr %8, align 8
  %46 = icmp eq ptr %17, %45
  br i1 %46, label %51, label %47

47:                                               ; preds = %47, %41
  %48 = phi ptr [ %45, %41 ], [ %49, %47 ]
  %49 = getelementptr inbounds %"class.std::__cxx11::basic_string", ptr %48, i64 -1
  call void @_ZNSt7__cxx1112basic_stringIcSt11char_traitsIcESaIcEED2Ev(ptr noundef nonnull align 8 dereferenceable(32) %49) #1
  %50 = icmp eq ptr %49, %17
  br i1 %50, label %51, label %47

51:                                               ; preds = %47, %41
  br label %78

52:                                               ; preds = %19
  %53 = landingpad { ptr, i32 }
          cleanup
  %54 = extractvalue { ptr, i32 } %53, 0
  store ptr %54, ptr %9, align 8
  %55 = extractvalue { ptr, i32 } %53, 1
  store i32 %55, ptr %10, align 4
  br label %70

56:                                               ; preds = %27
  %57 = landingpad { ptr, i32 }
          cleanup
  %58 = extractvalue { ptr, i32 } %57, 0
  store ptr %58, ptr %9, align 8
  %59 = extractvalue { ptr, i32 } %57, 1
  store i32 %59, ptr %10, align 4
  br label %69

60:                                               ; preds = %28
  %61 = landingpad { ptr, i32 }
          cleanup
  %62 = extractvalue { ptr, i32 } %61, 0
  store ptr %62, ptr %9, align 8
  %63 = extractvalue { ptr, i32 } %61, 1
  store i32 %63, ptr %10, align 4
  br label %68

64:                                               ; preds = %30
  %65 = landingpad { ptr, i32 }
          cleanup
  %66 = extractvalue { ptr, i32 } %65, 0
  store ptr %66, ptr %9, align 8
  %67 = extractvalue { ptr, i32 } %65, 1
  store i32 %67, ptr %10, align 4
  call void @_ZNSt7__cxx1112basic_stringIcSt11char_traitsIcESaIcEED2Ev(ptr noundef nonnull align 8 dereferenceable(32) %13) #1
  br label %68

68:                                               ; preds = %64, %60
  call void @_ZNSt7__cxx1112basic_stringIcSt11char_traitsIcESaIcEED2Ev(ptr noundef nonnull align 8 dereferenceable(32) %14) #1
  br label %69

69:                                               ; preds = %68, %56
  call void @_ZNSaIcED1Ev(ptr noundef nonnull align 1 dereferenceable(1) %15) #1
  call void @_ZNSt3setINSt7__cxx1112basic_stringIcSt11char_traitsIcESaIcEEESt4lessIS5_ESaIS5_EED2Ev(ptr noundef nonnull align 8 dereferenceable(48) %5) #1
  br label %70

70:                                               ; preds = %69, %52
  call void @_ZNSaINSt7__cxx1112basic_stringIcSt11char_traitsIcESaIcEEEED2Ev(ptr noundef nonnull align 1 dereferenceable(1) %12) #1
  %71 = getelementptr inbounds [1 x %"class.std::__cxx11::basic_string"], ptr %7, i32 0, i32 0
  %72 = getelementptr inbounds %"class.std::__cxx11::basic_string", ptr %71, i64 1
  br label %73

73:                                               ; preds = %73, %70
  %74 = phi ptr [ %72, %70 ], [ %75, %73 ]
  %75 = getelementptr inbounds %"class.std::__cxx11::basic_string", ptr %74, i64 -1
  call void @_ZNSt7__cxx1112basic_stringIcSt11char_traitsIcESaIcEED2Ev(ptr noundef nonnull align 8 dereferenceable(32) %75) #1
  %76 = icmp eq ptr %75, %71
  br i1 %76, label %77, label %73

77:                                               ; preds = %73
  br label %78

78:                                               ; preds = %77, %51
  %79 = load ptr, ptr %9, align 8
  %80 = load i32, ptr %10, align 4
  %81 = insertvalue { ptr, i32 } poison, ptr %79, 0
  %82 = insertvalue { ptr, i32 } %81, i32 %80, 1
  resume { ptr, i32 } %82
}